target datalayout = "e-m:e-p270:32:32-p271:32:32-p272:64:64-i64:64-i128:128-f80:128-n8:16:32:64-S128"
target triple = "x86_64-pc-linux-gnu"

%"class.zmq::msg_t" = type { %union.anon }
%union.anon = type { %struct.anon }
%struct.anon = type { ptr, [34 x i8], i8, i8, i32, %"union.zmq::msg_t::group_t" }
%"union.zmq::msg_t::group_t" = type { %struct.anon.1 }
%struct.anon.1 = type { i8, ptr }
%"class.zmq::pipe_t" = type { %"class.zmq::object_t.base", [4 x i8], %"class.zmq::array_item_t.base", [4 x i8], %"class.zmq::array_item_t.base.11", [4 x i8], %"class.zmq::array_item_t.base.13", ptr, ptr, i8, i8, i32, i32, i32, i32, i64, i64, i64, ptr, ptr, i32, i8, [3 x i8], %"struct.zmq::blob_t", i32, i8, [3 x i8], %"struct.zmq::endpoint_uri_pair_t", %"class.zmq::msg_t" }
%"class.zmq::object_t.base" = type <{ ptr, ptr, i32 }>
%"class.zmq::array_item_t.base" = type <{ ptr, i32 }>
%"class.zmq::array_item_t.base.11" = type <{ ptr, i32 }>
%"class.zmq::array_item_t.base.13" = type <{ ptr, i32 }>
%"struct.zmq::blob_t" = type <{ ptr, i64, i8, [7 x i8] }>
%"struct.zmq::endpoint_uri_pair_t" = type <{ %"class.std::__cxx11::basic_string", %"class.std::__cxx11::basic_string", i32, [4 x i8] }>
%"class.std::__cxx11::basic_string" = type { %"struct.std::__cxx11::basic_string<char>::_Alloc_hider", i64, %union.anon.14 }
%"struct.std::__cxx11::basic_string<char>::_Alloc_hider" = type { ptr }
%union.anon.14 = type { i64, [8 x i8] }

@stderr = external global ptr, align 8
@.str.1 = private unnamed_addr constant [104 x i8] c"generated/home/dtcxzyw/WorkSpace/Projects/compilers/llvm-opt-benchmark/bench/libzmq/libzmq/src/pipe.cpp\00", align 1
@.str.3 = private unnamed_addr constant [12 x i8] c"%s (%s:%d)\0A\00", align 1
@.str.4 = private unnamed_addr constant [30 x i8] c"Assertion failed: %s (%s:%d)\0A\00", align 1
@.str.11 = private unnamed_addr constant [10 x i8] c"_out_pipe\00", align 1
@.str.12 = private unnamed_addr constant [6 x i8] c"pipe_\00", align 1

; Function Attrs: mustprogress uwtable
define void @_ZN3zmq6pipe_t14process_hiccupEPv(ptr noundef nonnull align 8 dereferenceable(328) %0, ptr noundef %1) unnamed_addr #0 align 2 {
  %3 = alloca ptr, align 8
  %4 = alloca ptr, align 8
  %5 = alloca %"class.zmq::msg_t", align 8
  %6 = alloca i32, align 4
  %7 = alloca ptr, align 8
  store ptr %0, ptr %3, align 8, !tbaa !27
  store ptr %1, ptr %4, align 8, !tbaa !150
  %8 = load ptr, ptr %3, align 8
  br label %9

9:                                                ; preds = %2
  %10 = getelementptr inbounds nuw %"class.zmq::pipe_t", ptr %8, i32 0, i32 8
  %11 = load ptr, ptr %10, align 8, !tbaa !108
  %12 = icmp ne ptr %11, null
  %13 = xor i1 %12, true
  %14 = zext i1 %13 to i64
  %15 = call i64 @llvm.expect.i64(i64 %14, i64 0)
  %16 = icmp ne i64 %15, 0
  br i1 %16, label %17, label %22

17:                                               ; preds = %9
  %18 = load ptr, ptr @stderr, align 8, !tbaa !21
  %19 = call i32 (ptr, ptr, ...) @fprintf(ptr noundef %18, ptr noundef @.str.4, ptr noundef @.str.11, ptr noundef @.str.1, i32 noundef 282) #17
  %20 = load ptr, ptr @stderr, align 8, !tbaa !21
  %21 = call i32 @fflush(ptr noundef %20)
  call void @_ZN3zmq9zmq_abortEPKc(ptr noundef @.str.11)
  br label %22

22:                                               ; preds = %17, %9
  br label %23

23:                                               ; preds = %22
  %24 = getelementptr inbounds nuw %"class.zmq::pipe_t", ptr %8, i32 0, i32 8
  %25 = load ptr, ptr %24, align 8, !tbaa !108
  %26 = load ptr, ptr %25, align 8, !tbaa !31
  %27 = getelementptr inbounds ptr, ptr %26, i64 4
  %28 = load ptr, ptr %27, align 8
  %29 = call noundef zeroext i1 %28(ptr noundef nonnull align 8 dereferenceable(8) %25)
  call void @llvm.lifetime.start.p0(i64 64, ptr %5) #17
  br label %30

30:                                               ; preds = %67, %23
  %31 = getelementptr inbounds nuw %"class.zmq::pipe_t", ptr %8, i32 0, i32 8
  %32 = load ptr, ptr %31, align 8, !tbaa !108
  %33 = load ptr, ptr %32, align 8, !tbaa !31
  %34 = getelementptr inbounds ptr, ptr %33, i64 6
  %35 = load ptr, ptr %34, align 8
  %36 = call noundef zeroext i1 %35(ptr noundef nonnull align 8 dereferenceable(8) %32, ptr noundef %5)
  br i1 %36, label %37, label %68

37:                                               ; preds = %30
  %38 = call noundef zeroext i8 @_ZNK3zmq5msg_t5flagsEv(ptr noundef nonnull align 8 dereferenceable(64) %5)
  %39 = zext i8 %38 to i32
  %40 = and i32 %39, 1
  %41 = icmp ne i32 %40, 0
  br i1 %41, label %46, label %42

42:                                               ; preds = %37
  %43 = getelementptr inbounds nuw %"class.zmq::pipe_t", ptr %8, i32 0, i32 16
  %44 = load i64, ptr %43, align 8, !tbaa !109
  %45 = add i64 %44, -1
  store i64 %45, ptr %43, align 8, !tbaa !109
  br label %46

46:                                               ; preds = %42, %37
  call void @llvm.lifetime.start.p0(i64 4, ptr %6) #17
  %47 = call noundef i32 @_ZN3zmq5msg_t5closeEv(ptr noundef nonnull align 8 dereferenceable(64) %5)
  store i32 %47, ptr %6, align 4, !tbaa !25
  br label %48

48:                                               ; preds = %46
  %49 = load i32, ptr %6, align 4, !tbaa !25
  %50 = icmp eq i32 %49, 0
  %51 = xor i1 %50, true
  %52 = zext i1 %51 to i64
  %53 = call i64 @llvm.expect.i64(i64 %52, i64 0)
  %54 = icmp ne i64 %53, 0
  br i1 %54, label %55, label %65

55:                                               ; preds = %48
  call void @llvm.lifetime.start.p0(i64 8, ptr %7) #17
  %56 = call ptr @__errno_location() #20
  %57 = load i32, ptr %56, align 4, !tbaa !25
  %58 = call ptr @strerror(i32 noundef %57) #17
  store ptr %58, ptr %7, align 8, !tbaa !106
  %59 = load ptr, ptr @stderr, align 8, !tbaa !21
  %60 = load ptr, ptr %7, align 8, !tbaa !106
  %61 = call i32 (ptr, ptr, ...) @fprintf(ptr noundef %59, ptr noundef @.str.3, ptr noundef %60, ptr noundef @.str.1, i32 noundef 289) #17
  %62 = load ptr, ptr @stderr, align 8, !tbaa !21
  %63 = call i32 @fflush(ptr noundef %62)
  %64 = load ptr, ptr %7, align 8, !tbaa !106
  call void @_ZN3zmq9zmq_abortEPKc(ptr noundef %64)
  call void @llvm.lifetime.end.p0(i64 8, ptr %7) #17
  br label %65

65:                                               ; preds = %55, %48
  br label %66

66:                                               ; preds = %65
  br label %67

67:                                               ; preds = %66
  call void @llvm.lifetime.end.p0(i64 4, ptr %6) #17
  br label %30, !llvm.loop !151

68:                                               ; preds = %30
  %69 = getelementptr inbounds nuw %"class.zmq::pipe_t", ptr %8, i32 0, i32 8
  %70 = load ptr, ptr %69, align 8, !tbaa !108
  %71 = icmp eq ptr %70, null
  br i1 %71, label %76, label %72

72:                                               ; preds = %68
  %73 = load ptr, ptr %70, align 8, !tbaa !31
  %74 = getelementptr inbounds ptr, ptr %73, i64 1
  %75 = load ptr, ptr %74, align 8
  call void %75(ptr noundef nonnull align 8 dereferenceable(8) %70) #17
  br label %76

76:                                               ; preds = %72, %68
  %77 = getelementptr inbounds nuw %"class.zmq::pipe_t", ptr %8, i32 0, i32 8
  store ptr null, ptr %77, align 8, !tbaa !108
  br label %78

78:                                               ; preds = %76
  %79 = load ptr, ptr %4, align 8, !tbaa !150
  %80 = icmp ne ptr %79, null
  %81 = xor i1 %80, true
  %82 = zext i1 %81 to i64
  %83 = call i64 @llvm.expect.i64(i64 %82, i64 0)
  %84 = icmp ne i64 %83, 0
  br i1 %84, label %85, label %90

85:                                               ; preds = %78
  %86 = load ptr, ptr @stderr, align 8, !tbaa !21
  %87 = call i32 (ptr, ptr, ...) @fprintf(ptr noundef %86, ptr noundef @.str.4, ptr noundef @.str.12, ptr noundef @.str.1, i32 noundef 294) #17
  %88 = load ptr, ptr @stderr, align 8, !tbaa !21
  %89 = call i32 @fflush(ptr noundef %88)
  call void @_ZN3zmq9zmq_abortEPKc(ptr noundef @.str.12)
  br label %90

90:                                               ; preds = %85, %78
  br label %91

91:                                               ; preds = %90
  br label %92

92:                                               ; preds = %91
  %93 = load ptr, ptr %4, align 8, !tbaa !150
  %94 = getelementptr inbounds nuw %"class.zmq::pipe_t", ptr %8, i32 0, i32 8
  store ptr %93, ptr %94, align 8, !tbaa !108
  %95 = getelementptr inbounds nuw %"class.zmq::pipe_t", ptr %8, i32 0, i32 10
  store i8 1, ptr %95, align 1, !tbaa !118
  %96 = getelementptr inbounds nuw %"class.zmq::pipe_t", ptr %8, i32 0, i32 20
  %97 = load i32, ptr %96, align 8, !tbaa !110
  %98 = icmp eq i32 %97, 0
  br i1 %98, label %99, label %105

99:                                               ; preds = %92
  %100 = getelementptr inbounds nuw %"class.zmq::pipe_t", ptr %8, i32 0, i32 19
  %101 = load ptr, ptr %100, align 8, !tbaa !125
  %102 = load ptr, ptr %101, align 8, !tbaa !31
  %103 = getelementptr inbounds ptr, ptr %102, i64 4
  %104 = load ptr, ptr %103, align 8
  call void %104(ptr noundef nonnull align 8 dereferenceable(8) %101, ptr noundef %8)
  br label %105

105:                                              ; preds = %99, %92
  call void @llvm.lifetime.end.p0(i64 64, ptr %5) #17
  ret void
}