; Function Attrs: mustprogress uwtable
define void @_ZN3zmq6pipe_t14process_hiccupEPv(ptr noundef nonnull align 8 dereferenceable(328) %0, ptr noundef %1) unnamed_addr #0 align 2 {
  %3 = alloca %"class.zmq::msg_t", align 8
  %4 = getelementptr inbounds nuw i8, ptr %0, i64 80
  %5 = load ptr, ptr %4, align 8, !tbaa !103
  %.not = icmp eq ptr %5, null
  br i1 %.not, label %6, label %11, !prof !54

6:                                                ; preds = %2
  %7 = load ptr, ptr @stderr, align 8, !tbaa !21
  %8 = tail call i32 (ptr, ptr, ...) @fprintf(ptr noundef %7, ptr noundef nonnull @.str.4, ptr noundef nonnull @.str.11, ptr noundef nonnull @.str.1, i32 noundef 282) #26
  %9 = load ptr, ptr @stderr, align 8, !tbaa !21
  %10 = tail call i32 @fflush(ptr noundef %9)
  tail call void @_ZN3zmq9zmq_abortEPKc(ptr noundef nonnull @.str.11)
  %.pre = load ptr, ptr %4, align 8, !tbaa !103
  br label %11

11:                                               ; preds = %2, %6
  %12 = phi ptr [ %5, %2 ], [ %.pre, %6 ]
  %13 = load ptr, ptr %12, align 8, !tbaa !9
  %14 = getelementptr inbounds nuw i8, ptr %13, i64 32
  %15 = load ptr, ptr %14, align 8
  %16 = tail call noundef zeroext i1 %15(ptr noundef nonnull align 8 dereferenceable(8) %12)
  call void @llvm.lifetime.start.p0(i64 64, ptr nonnull %3) #25
  %17 = load ptr, ptr %4, align 8, !tbaa !103
  %18 = load ptr, ptr %17, align 8, !tbaa !9
  %19 = getelementptr inbounds nuw i8, ptr %18, i64 48
  %20 = load ptr, ptr %19, align 8
  %21 = call noundef zeroext i1 %20(ptr noundef nonnull align 8 dereferenceable(8) %17, ptr noundef nonnull %3)
  br i1 %21, label %.lr.ph, label %._crit_edge

.lr.ph:                                           ; preds = %11
  %22 = getelementptr inbounds nuw i8, ptr %0, i64 120
  br label %23

23:                                               ; preds = %.lr.ph, %39
  %24 = call noundef zeroext i8 @_ZNK3zmq5msg_t5flagsEv(ptr noundef nonnull align 8 dereferenceable(64) %3)
  %25 = and i8 %24, 1
  %.not6 = icmp eq i8 %25, 0
  br i1 %.not6, label %26, label %29

26:                                               ; preds = %23
  %27 = load i64, ptr %22, align 8, !tbaa !104
  %28 = add i64 %27, -1
  store i64 %28, ptr %22, align 8, !tbaa !104
  br label %29

29:                                               ; preds = %26, %23
  %30 = call noundef i32 @_ZN3zmq5msg_t5closeEv(ptr noundef nonnull align 8 dereferenceable(64) %3)
  %.not7 = icmp eq i32 %30, 0
  br i1 %.not7, label %39, label %31, !prof !47

31:                                               ; preds = %29
  %32 = tail call ptr @__errno_location() #28
  %33 = load i32, ptr %32, align 4, !tbaa !25
  %34 = call ptr @strerror(i32 noundef %33) #25
  %35 = load ptr, ptr @stderr, align 8, !tbaa !21
  %36 = call i32 (ptr, ptr, ...) @fprintf(ptr noundef %35, ptr noundef nonnull @.str.3, ptr noundef %34, ptr noundef nonnull @.str.1, i32 noundef 289) #26
  %37 = load ptr, ptr @stderr, align 8, !tbaa !21
  %38 = call i32 @fflush(ptr noundef %37)
  call void @_ZN3zmq9zmq_abortEPKc(ptr noundef %34)
  br label %39

39:                                               ; preds = %31, %29
  %40 = load ptr, ptr %4, align 8, !tbaa !103
  %41 = load ptr, ptr %40, align 8, !tbaa !9
  %42 = getelementptr inbounds nuw i8, ptr %41, i64 48
  %43 = load ptr, ptr %42, align 8
  %44 = call noundef zeroext i1 %43(ptr noundef nonnull align 8 dereferenceable(8) %40, ptr noundef nonnull %3)
  br i1 %44, label %23, label %._crit_edge, !llvm.loop !133

._crit_edge:                                      ; preds = %39, %11
  %45 = load ptr, ptr %4, align 8, !tbaa !103
  %46 = icmp eq ptr %45, null
  br i1 %46, label %51, label %47

47:                                               ; preds = %._crit_edge
  %48 = load ptr, ptr %45, align 8, !tbaa !9
  %49 = getelementptr inbounds nuw i8, ptr %48, i64 8
  %50 = load ptr, ptr %49, align 8
  call void %50(ptr noundef nonnull align 8 dereferenceable(8) %45) #25
  br label %51

51:                                               ; preds = %47, %._crit_edge
  store ptr null, ptr %4, align 8, !tbaa !103
  %.not5 = icmp eq ptr %1, null
  br i1 %.not5, label %52, label %57, !prof !54

52:                                               ; preds = %51
  %53 = load ptr, ptr @stderr, align 8, !tbaa !21
  %54 = call i32 (ptr, ptr, ...) @fprintf(ptr noundef %53, ptr noundef nonnull @.str.4, ptr noundef nonnull @.str.12, ptr noundef nonnull @.str.1, i32 noundef 294) #26
  %55 = load ptr, ptr @stderr, align 8, !tbaa !21
  %56 = call i32 @fflush(ptr noundef %55)
  call void @_ZN3zmq9zmq_abortEPKc(ptr noundef nonnull @.str.12)
  br label %57

57:                                               ; preds = %52, %51
  store ptr %1, ptr %4, align 8, !tbaa !103
  %58 = getelementptr inbounds nuw i8, ptr %0, i64 89
  store i8 1, ptr %58, align 1, !tbaa !101
  %59 = getelementptr inbounds nuw i8, ptr %0, i64 152
  %60 = load i32, ptr %59, align 8, !tbaa !105
  %61 = icmp eq i32 %60, 0
  br i1 %61, label %62, label %68

62:                                               ; preds = %57
  %63 = getelementptr inbounds nuw i8, ptr %0, i64 144
  %64 = load ptr, ptr %63, align 8, !tbaa !126
  %65 = load ptr, ptr %64, align 8, !tbaa !9
  %66 = getelementptr inbounds nuw i8, ptr %65, i64 32
  %67 = load ptr, ptr %66, align 8
  call void %67(ptr noundef nonnull align 8 dereferenceable(8) %64, ptr noundef nonnull %0)
  br label %68

68:                                               ; preds = %62, %57
  call void @llvm.lifetime.end.p0(i64 64, ptr nonnull %3) #25
  ret void
}